; Function Attrs: mustprogress uwtable
define void @_ZN11OpenImageIO6v3_1_03pvt6TagMapC2ENS0_17basic_string_viewIcSt11char_traitsIcEEENS0_4spanIKNS0_7TagInfoELm18446744073709551615EEE(ptr noundef nonnull writeonly align 8 captures(none) dereferenceable(8) %0, ptr noundef readonly captures(none) %1, ptr %2, i64 %3) unnamed_addr #4 align 2 personality ptr @__gxx_personality_v0 {
  %5 = alloca %"class.OpenImageIO::v3_1_0::basic_string_view", align 8
  %6 = tail call noalias noundef nonnull dereferenceable(192) ptr @_Znwm(i64 noundef 192) #32
  %7 = load ptr, ptr %1, align 8, !tbaa !3
  store ptr %7, ptr %5, align 8, !tbaa !3
  %8 = getelementptr inbounds nuw i8, ptr %5, i64 8
  %9 = getelementptr inbounds nuw i8, ptr %1, i64 8
  %10 = load i64, ptr %9, align 8, !tbaa !10
  store i64 %10, ptr %8, align 8, !tbaa !10
  invoke void @_ZN11OpenImageIO6v3_1_03pvt6TagMap4ImplC2ENS0_17basic_string_viewIcSt11char_traitsIcEEENS0_4spanIKNS0_7TagInfoELm18446744073709551615EEE(ptr noundef nonnull align 8 dereferenceable(192) %6, ptr noundef nonnull %5, ptr %2, i64 %3)
          to label %11 unwind label %12

11:                                               ; preds = %4
  store ptr %6, ptr %0, align 8, !tbaa !11
  ret void

12:                                               ; preds = %4
  %13 = landingpad { ptr, i32 }
          cleanup
  call void @_ZdlPvm(ptr noundef nonnull %6, i64 noundef 192) #33
  resume { ptr, i32 } %13
}